; ModuleID = '57/671.c'
source_filename = "57/671.c"
target datalayout = "e-m:e-p270:32:32-p271:32:32-p272:64:64-i64:64-f80:128-n8:16:32:64-S128"
target triple = "x86_64-pc-linux-gnu"

@.str = private unnamed_addr constant [4 x i8] c"%d\0A\00", align 1

; Function Attrs: noinline nounwind uwtable
define dso_local i32 @main() #0 {
  %1 = alloca i32, align 4
  %2 = alloca i32, align 4
  %3 = alloca i32, align 4
  %4 = alloca i32, align 4
  %5 = alloca [200 x i8], align 16
  %6 = alloca [200 x i8], align 16
  store i32 0, i32* %1, align 4
  %7 = call i32 (i8*, ...) @__isoc99_scanf(i8* getelementptr inbounds ([4 x i8], [4 x i8]* @.str, i64 0, i64 0), i32* %4)
  store i32 1, i32* %2, align 4
  br label %8

8:                                                ; preds = %100, %0
  %9 = load i32, i32* %2, align 4
  %10 = load i32, i32* %4, align 4
  %11 = icmp sle i32 %9, %10
  br i1 %11, label %12, label %103

12:                                               ; preds = %8
  %13 = bitcast [200 x i8]* %6 to i8*
  call void @llvm.memset.p0i8.i64(i8* align 16 %13, i8 0, i64 200, i1 false)
  %14 = getelementptr inbounds [200 x i8], [200 x i8]* %5, i64 0, i64 0
  %15 = call i32 (i8*, ...) bitcast (i32 (...)* @gets to i32 (i8*, ...)*)(i8* %14)
  %16 = getelementptr inbounds [200 x i8], [200 x i8]* %5, i64 0, i64 0
  %17 = call i64 @strlen(i8* %16) #5
  %18 = trunc i64 %17 to i32
  store i32 %18, i32* %3, align 4
  %19 = load i32, i32* %3, align 4
  %20 = sub nsw i32 %19, 1
  %21 = sext i32 %20 to i64
  %22 = getelementptr inbounds [200 x i8], [200 x i8]* %5, i64 0, i64 %21
  %23 = load i8, i8* %22, align 1
  %24 = sext i8 %23 to i32
  %25 = icmp eq i32 %24, 114
  br i1 %25, label %26, label %41

26:                                               ; preds = %12
  %27 = load i32, i32* %3, align 4
  %28 = sub nsw i32 %27, 2
  %29 = sext i32 %28 to i64
  %30 = getelementptr inbounds [200 x i8], [200 x i8]* %5, i64 0, i64 %29
  %31 = load i8, i8* %30, align 1
  %32 = sext i8 %31 to i32
  %33 = icmp eq i32 %32, 101
  br i1 %33, label %34, label %41

34:                                               ; preds = %26
  %35 = getelementptr inbounds [200 x i8], [200 x i8]* %6, i64 0, i64 0
  %36 = getelementptr inbounds [200 x i8], [200 x i8]* %5, i64 0, i64 0
  %37 = load i32, i32* %3, align 4
  %38 = sub nsw i32 %37, 2
  %39 = sext i32 %38 to i64
  %40 = call i8* @strncpy(i8* %35, i8* %36, i64 %39) #6
  br label %97

41:                                               ; preds = %26, %12
  %42 = load i32, i32* %3, align 4
  %43 = sub nsw i32 %42, 1
  %44 = sext i32 %43 to i64
  %45 = getelementptr inbounds [200 x i8], [200 x i8]* %5, i64 0, i64 %44
  %46 = load i8, i8* %45, align 1
  %47 = sext i8 %46 to i32
  %48 = icmp eq i32 %47, 121
  br i1 %48, label %49, label %64

49:                                               ; preds = %41
  %50 = load i32, i32* %3, align 4
  %51 = sub nsw i32 %50, 2
  %52 = sext i32 %51 to i64
  %53 = getelementptr inbounds [200 x i8], [200 x i8]* %5, i64 0, i64 %52
  %54 = load i8, i8* %53, align 1
  %55 = sext i8 %54 to i32
  %56 = icmp eq i32 %55, 108
  br i1 %56, label %57, label %64

57:                                               ; preds = %49
  %58 = getelementptr inbounds [200 x i8], [200 x i8]* %6, i64 0, i64 0
  %59 = getelementptr inbounds [200 x i8], [200 x i8]* %5, i64 0, i64 0
  %60 = load i32, i32* %3, align 4
  %61 = sub nsw i32 %60, 2
  %62 = sext i32 %61 to i64
  %63 = call i8* @strncpy(i8* %58, i8* %59, i64 %62) #6
  br label %96

64:                                               ; preds = %49, %41
  %65 = load i32, i32* %3, align 4
  %66 = sub nsw i32 %65, 1
  %67 = sext i32 %66 to i64
  %68 = getelementptr inbounds [200 x i8], [200 x i8]* %5, i64 0, i64 %67
  %69 = load i8, i8* %68, align 1
  %70 = sext i8 %69 to i32
  %71 = icmp eq i32 %70, 103
  br i1 %71, label %72, label %95

72:                                               ; preds = %64
  %73 = load i32, i32* %3, align 4
  %74 = sub nsw i32 %73, 2
  %75 = sext i32 %74 to i64
  %76 = getelementptr inbounds [200 x i8], [200 x i8]* %5, i64 0, i64 %75
  %77 = load i8, i8* %76, align 1
  %78 = sext i8 %77 to i32
  %79 = icmp eq i32 %78, 110
  br i1 %79, label %80, label %95

80:                                               ; preds = %72
  %81 = load i32, i32* %3, align 4
  %82 = sub nsw i32 %81, 3
  %83 = sext i32 %82 to i64
  %84 = getelementptr inbounds [200 x i8], [200 x i8]* %5, i64 0, i64 %83
  %85 = load i8, i8* %84, align 1
  %86 = sext i8 %85 to i32
  %87 = icmp eq i32 %86, 105
  br i1 %87, label %88, label %95

88:                                               ; preds = %80
  %89 = getelementptr inbounds [200 x i8], [200 x i8]* %6, i64 0, i64 0
  %90 = getelementptr inbounds [200 x i8], [200 x i8]* %5, i64 0, i64 0
  %91 = load i32, i32* %3, align 4
  %92 = sub nsw i32 %91, 3
  %93 = sext i32 %92 to i64
  %94 = call i8* @strncpy(i8* %89, i8* %90, i64 %93) #6
  br label %95

95:                                               ; preds = %88, %80, %72, %64
  br label %96

96:                                               ; preds = %95, %57
  br label %97

97:                                               ; preds = %96, %34
  %98 = getelementptr inbounds [200 x i8], [200 x i8]* %6, i64 0, i64 0
  %99 = call i32 @puts(i8* %98)
  br label %100

100:                                              ; preds = %97
  %101 = load i32, i32* %2, align 4
  %102 = add nsw i32 %101, 1
  store i32 %102, i32* %2, align 4
  br label %8

103:                                              ; preds = %8
  ret i32 0
}

declare dso_local i32 @__isoc99_scanf(i8*, ...) #1

; Function Attrs: argmemonly nounwind willreturn
declare void @llvm.memset.p0i8.i64(i8* nocapture writeonly, i8, i64, i1 immarg) #2

declare dso_local i32 @gets(...) #1

; Function Attrs: nounwind readonly
declare dso_local i64 @strlen(i8*) #3

; Function Attrs: nounwind
declare dso_local i8* @strncpy(i8*, i8*, i64) #4

declare dso_local i32 @puts(i8*) #1


!llvm.module.flags = !{!0}
!llvm.ident = !{!1}

!0 = !{i32 1, !"wchar_size", i32 4}
!1 = !{!"clang version 10.0.0-4ubuntu1 "}
